; Function Attrs: null_pointer_is_valid sspstrong uwtable
define internal i32 @dissector_wimax_harq_map_decoder(ptr noundef %0, ptr noundef %1, ptr noundef %2, ptr readnone captures(none) %3) #0 {
  %5 = tail call i32 @tvb_reported_length(ptr noundef %0)
  %.not = icmp eq i32 %5, 0
  br i1 %.not, label %65, label %6

6:                                                ; preds = %4
  %7 = tail call i32 @tvb_get_ntoh24(ptr noundef %0, i32 noundef 0)
  %8 = and i32 %7, 14680064
  %.not88 = icmp eq i32 %8, 14680064
  br i1 %.not88, label %9, label %65

9:                                                ; preds = %6
  %10 = getelementptr inbounds nuw i8, ptr %1, i64 8
  %11 = load ptr, ptr %10, align 8
  tail call void @col_append_sep_str(ptr noundef %11, i32 noundef 25, ptr noundef null, ptr noundef nonnull @.str.22)
  %.not89 = icmp eq ptr %2, null
  br i1 %.not89, label %63, label %12

12:                                               ; preds = %9
  %13 = tail call ptr @proto_tree_get_parent(ptr noundef nonnull %2)
  %14 = load i32, ptr @proto_wimax_harq_map_decoder, align 4
  %15 = tail call ptr (ptr, i32, ptr, i32, i32, ptr, ...) @proto_tree_add_protocol_format(ptr noundef nonnull %2, i32 noundef %14, ptr noundef %0, i32 noundef 0, i32 noundef %5, ptr noundef nonnull @.str.23, i32 noundef %5)
  %16 = load i32, ptr @ett_wimax_harq_map_decoder, align 4
  %17 = tail call ptr @proto_item_add_subtree(ptr noundef %15, i32 noundef %16)
  %18 = load i32, ptr @hf_harq_map_indicator, align 4
  %19 = tail call ptr @proto_tree_add_item(ptr noundef %17, i32 noundef %18, ptr noundef %0, i32 noundef 0, i32 noundef 3, i32 noundef 0)
  %20 = load i32, ptr @hf_harq_ul_map_appended, align 4
  %21 = tail call ptr @proto_tree_add_item(ptr noundef %17, i32 noundef %20, ptr noundef %0, i32 noundef 0, i32 noundef 3, i32 noundef 0)
  %22 = load i32, ptr @hf_harq_map_reserved, align 4
  %23 = tail call ptr @proto_tree_add_item(ptr noundef %17, i32 noundef %22, ptr noundef %0, i32 noundef 0, i32 noundef 3, i32 noundef 0)
  %24 = load i32, ptr @hf_harq_map_msg_length, align 4
  %25 = tail call ptr @proto_tree_add_item(ptr noundef %17, i32 noundef %24, ptr noundef %0, i32 noundef 0, i32 noundef 3, i32 noundef 0)
  %26 = load i32, ptr @hf_harq_dl_ie_count, align 4
  %27 = tail call ptr @proto_tree_add_item(ptr noundef %17, i32 noundef %26, ptr noundef %0, i32 noundef 0, i32 noundef 3, i32 noundef 0)
  %28 = lshr i32 %7, 10
  %29 = and i32 %28, 511
  %30 = lshr i32 %7, 4
  %31 = and i32 %30, 63
  %32 = and i32 %7, 1048576
  %.not102 = icmp eq i32 %31, 0
  br i1 %.not102, label %._crit_edge, label %.lr.ph

.lr.ph:                                           ; preds = %12, %.lr.ph
  %.08094 = phi i32 [ %38, %.lr.ph ], [ 0, %12 ]
  %.08193 = phi i32 [ %36, %.lr.ph ], [ 2, %12 ]
  %.08292 = phi i32 [ %37, %.lr.ph ], [ 1, %12 ]
  tail call void (ptr, ptr, ...) @proto_item_append_text(ptr noundef %13, ptr noundef nonnull @.str.24)
  %33 = tail call i32 @wimax_compact_dlmap_ie_decoder(ptr noundef %17, ptr noundef %1, ptr noundef %0, i32 noundef %.08193, i32 noundef %.08292)
  %34 = add i32 %33, %.08292
  %35 = lshr i32 %34, 1
  %36 = add i32 %35, %.08193
  %37 = and i32 %34, 1
  %38 = add nuw nsw i32 %.08094, 1
  %exitcond.not = icmp eq i32 %38, %31
  br i1 %exitcond.not, label %._crit_edge, label %.lr.ph, !llvm.loop !6

._crit_edge:                                      ; preds = %.lr.ph, %12
  %.082.lcssa = phi i32 [ 1, %12 ], [ %37, %.lr.ph ]
  %.081.lcssa = phi i32 [ 2, %12 ], [ %36, %.lr.ph ]
  %.not90 = icmp eq i32 %32, 0
  br i1 %.not90, label %.loopexit, label %39

39:                                               ; preds = %._crit_edge
  tail call void (ptr, ptr, ...) @proto_item_append_text(ptr noundef %13, ptr noundef nonnull @.str.25)
  %40 = add nsw i32 %29, -4
  %41 = icmp ult i32 %.081.lcssa, %40
  br i1 %41, label %.lr.ph99, label %.loopexit

.lr.ph99:                                         ; preds = %39, %.lr.ph99
  %.297 = phi i32 [ %45, %.lr.ph99 ], [ %.081.lcssa, %39 ]
  %.28496 = phi i32 [ %46, %.lr.ph99 ], [ %.082.lcssa, %39 ]
  %42 = tail call i32 @wimax_compact_ulmap_ie_decoder(ptr noundef %17, ptr noundef %1, ptr noundef %0, i32 noundef %.297, i32 noundef %.28496)
  %spec.store.select = tail call i32 @llvm.umax.i32(i32 %42, i32 2)
  %43 = add i32 %spec.store.select, %.28496
  %44 = lshr i32 %43, 1
  %45 = add i32 %44, %.297
  %46 = and i32 %43, 1
  %47 = icmp ult i32 %45, %40
  br i1 %47, label %.lr.ph99, label %.loopexit, !llvm.loop !8

.loopexit:                                        ; preds = %.lr.ph99, %39, %._crit_edge
  %.183 = phi i32 [ %.082.lcssa, %._crit_edge ], [ %.082.lcssa, %39 ], [ %46, %.lr.ph99 ]
  %.1 = phi i32 [ %.081.lcssa, %._crit_edge ], [ %.081.lcssa, %39 ], [ %45, %.lr.ph99 ]
  %.not91 = icmp eq i32 %.183, 0
  br i1 %.not91, label %54, label %48

48:                                               ; preds = %.loopexit
  tail call void (ptr, ptr, ...) @proto_item_append_text(ptr noundef %13, ptr noundef nonnull @.str.26)
  %49 = load i32, ptr @proto_wimax_harq_map_decoder, align 4
  %50 = tail call zeroext i8 @tvb_get_uint8(ptr noundef %0, i32 noundef %.1)
  %51 = and i8 %50, 15
  %52 = zext nneg i8 %51 to i32
  %53 = tail call ptr (ptr, i32, ptr, i32, i32, ptr, ...) @proto_tree_add_protocol_format(ptr noundef %17, i32 noundef %49, ptr noundef %0, i32 noundef %.1, i32 noundef 1, ptr noundef nonnull @.str.27, i32 noundef %52)
  br label %54

54:                                               ; preds = %48, %.loopexit
  tail call void (ptr, ptr, ...) @proto_item_append_text(ptr noundef %13, ptr noundef nonnull @.str.28)
  %55 = icmp samesign ugt i32 %29, 3
  br i1 %55, label %56, label %63

56:                                               ; preds = %54
  %57 = add nsw i32 %29, -4
  %58 = tail call ptr @tvb_get_ptr(ptr noundef %0, i32 noundef 0, i32 noundef %57)
  %59 = tail call i32 @wimax_mac_calc_crc32(ptr noundef %58, i32 noundef %57)
  %60 = load i32, ptr @hf_harq_map_msg_crc, align 4
  %61 = load i32, ptr @hf_harq_map_msg_crc_status, align 4
  %62 = tail call ptr @proto_tree_add_checksum(ptr noundef nonnull %2, ptr noundef %0, i32 noundef %57, i32 noundef %60, i32 noundef %61, ptr noundef nonnull @ei_harq_map_msg_crc, ptr noundef %1, i32 noundef %59, i32 noundef 0, i32 noundef 1)
  br label %63

63:                                               ; preds = %54, %56, %9
  %64 = tail call i32 @tvb_captured_length(ptr noundef %0)
  br label %65

65:                                               ; preds = %6, %4, %63
  %.0 = phi i32 [ %64, %63 ], [ 0, %4 ], [ 0, %6 ]
  ret i32 %.0
}